target datalayout = "e-m:e-p270:32:32-p271:32:32-p272:64:64-i64:64-i128:128-f80:128-n8:16:32:64-S128"
target triple = "x86_64-pc-linux-gnu"

%struct.lct_data_exchange = type { i32, i32, i8, i8, i8, i8 }

@hf_hec_type = internal global i32 0, align 4
@ett_ext_ext = internal global i32 0, align 4
@hf_hec_len = internal global i32 0, align 4
@hf_hec_data = internal global i32 0, align 4
@hf_cc_sequence = internal global i32 0, align 4
@hf_cc_flags = internal global i32 0, align 4
@hf_cc_rtt = internal global i32 0, align 4
@hf_cc_loss = internal global i32 0, align 4
@hf_cc_rate = internal global i32 0, align 4
@hf_ext_tol_48_transfer_len = internal global i32 0, align 4
@hf_send_rate = internal global i32 0, align 4
@hf_flute_version = internal global i32 0, align 4
@hf_fdt_instance_id = internal global i32 0, align 4
@hf_cenc = internal global i32 0, align 4
@hf_ext_tol_24_transfer_len = internal global i32 0, align 4

; Function Attrs: nounwind null_pointer_is_valid sspstrong uwtable
define hidden double @rmt_decode_send_rate(i16 noundef zeroext %0) #0 {
  %2 = alloca i16, align 2
  %3 = alloca double, align 8
  store i16 %0, ptr %2, align 2
  call void @llvm.lifetime.start.p0(i64 8, ptr %3) #6
  %4 = load i16, ptr %2, align 2
  %5 = zext i16 %4 to i32
  %6 = ashr i32 %5, 4
  %7 = sitofp i32 %6 to double
  %8 = fmul double %7, 1.000000e+01
  %9 = fdiv double %8, 4.096000e+03
  %10 = load i16, ptr %2, align 2
  %11 = zext i16 %10 to i32
  %12 = and i32 %11, 15
  %13 = sitofp i32 %12 to double
  %14 = call double @pow(double noundef 1.000000e+01, double noundef %13) #6
  %15 = fmul double %9, %14
  store double %15, ptr %3, align 8
  %16 = load double, ptr %3, align 8
  call void @llvm.lifetime.end.p0(i64 8, ptr %3) #6
  ret double %16
}

; Function Attrs: null_pointer_is_valid sspstrong uwtable
define hidden i32 @lct_ext_decode(ptr noundef %0, ptr noundef %1, ptr noundef %2, i32 noundef %3, i32 noundef %4, ptr noundef %5, i32 noundef %6, i32 noundef %7) #3 {
  %9 = alloca i32, align 4
  %10 = alloca ptr, align 8
  %11 = alloca ptr, align 8
  %12 = alloca ptr, align 8
  %13 = alloca i32, align 4
  %14 = alloca i32, align 4
  %15 = alloca ptr, align 8
  %16 = alloca i32, align 4
  %17 = alloca i32, align 4
  %18 = alloca i8, align 1
  %19 = alloca i32, align 4
  %20 = alloca i32, align 4
  %21 = alloca i32, align 4
  %22 = alloca i32, align 4
  %23 = alloca i32, align 4
  %24 = alloca ptr, align 8
  %25 = alloca ptr, align 8
  %26 = alloca ptr, align 8
  %27 = alloca double, align 8
  %28 = alloca i32, align 4
  store ptr %0, ptr %10, align 8
  store ptr %1, ptr %11, align 8
  store ptr %2, ptr %12, align 8
  store i32 %3, ptr %13, align 4
  store i32 %4, ptr %14, align 4
  store ptr %5, ptr %15, align 8
  store i32 %6, ptr %16, align 4
  store i32 %7, ptr %17, align 4
  call void @llvm.lifetime.start.p0(i64 1, ptr %18) #6
  call void @llvm.lifetime.start.p0(i64 4, ptr %19) #6
  call void @llvm.lifetime.start.p0(i64 4, ptr %20) #6
  store i32 0, ptr %20, align 4
  call void @llvm.lifetime.start.p0(i64 4, ptr %21) #6
  call void @llvm.lifetime.start.p0(i64 4, ptr %22) #6
  %29 = load i32, ptr %13, align 4
  store i32 %29, ptr %22, align 4
  call void @llvm.lifetime.start.p0(i64 4, ptr %23) #6
  %30 = load i32, ptr %13, align 4
  store i32 %30, ptr %23, align 4
  call void @llvm.lifetime.start.p0(i64 8, ptr %24) #6
  call void @llvm.lifetime.start.p0(i64 8, ptr %25) #6
  call void @llvm.lifetime.start.p0(i64 8, ptr %26) #6
  call void @llvm.lifetime.start.p0(i64 8, ptr %27) #6
  br label %31

31:                                               ; preds = %54, %8
  %32 = load i32, ptr %22, align 4
  %33 = load i32, ptr %14, align 4
  %34 = icmp ult i32 %32, %33
  br i1 %34, label %35, label %60

35:                                               ; preds = %31
  %36 = load ptr, ptr %11, align 8
  %37 = load i32, ptr %22, align 4
  %38 = call zeroext i8 @tvb_get_uint8(ptr noundef %36, i32 noundef %37)
  store i8 %38, ptr %18, align 1
  %39 = load i8, ptr %18, align 1
  %40 = zext i8 %39 to i32
  %41 = icmp sle i32 %40, 127
  br i1 %41, label %42, label %49

42:                                               ; preds = %35
  %43 = load ptr, ptr %11, align 8
  %44 = load i32, ptr %22, align 4
  %45 = add i32 %44, 1
  %46 = call zeroext i8 @tvb_get_uint8(ptr noundef %43, i32 noundef %45)
  %47 = zext i8 %46 to i32
  %48 = mul i32 %47, 4
  store i32 %48, ptr %21, align 4
  br label %50

49:                                               ; preds = %35
  store i32 4, ptr %21, align 4
  br label %50

50:                                               ; preds = %49, %42
  %51 = load i32, ptr %21, align 4
  %52 = icmp eq i32 %51, 0
  br i1 %52, label %53, label %54

53:                                               ; preds = %50
  br label %60

54:                                               ; preds = %50
  %55 = load i32, ptr %21, align 4
  %56 = load i32, ptr %22, align 4
  %57 = add i32 %56, %55
  store i32 %57, ptr %22, align 4
  %58 = load i32, ptr %20, align 4
  %59 = add i32 %58, 1
  store i32 %59, ptr %20, align 4
  br label %31, !llvm.loop !6

60:                                               ; preds = %53, %31
  %61 = load i32, ptr %20, align 4
  %62 = icmp eq i32 %61, 0
  br i1 %62, label %63, label %64

63:                                               ; preds = %60
  store i32 0, ptr %9, align 4
  store i32 1, ptr %28, align 4
  br label %268

64:                                               ; preds = %60
  %65 = load ptr, ptr %10, align 8
  %66 = load i32, ptr %16, align 4
  %67 = load ptr, ptr %11, align 8
  %68 = load i32, ptr %13, align 4
  %69 = load i32, ptr %22, align 4
  %70 = load i32, ptr %13, align 4
  %71 = sub i32 %69, %70
  %72 = load i32, ptr %20, align 4
  %73 = call ptr @proto_tree_add_uint(ptr noundef %65, i32 noundef %66, ptr noundef %67, i32 noundef %68, i32 noundef %71, i32 noundef %72)
  store ptr %73, ptr %24, align 8
  %74 = load ptr, ptr %24, align 8
  %75 = load i32, ptr %17, align 4
  %76 = call ptr @proto_item_add_subtree(ptr noundef %74, i32 noundef %75)
  store ptr %76, ptr %25, align 8
  store i32 0, ptr %19, align 4
  br label %77

77:                                               ; preds = %261, %64
  %78 = load i32, ptr %19, align 4
  %79 = load i32, ptr %20, align 4
  %80 = icmp ult i32 %78, %79
  br i1 %80, label %81, label %264

81:                                               ; preds = %77
  %82 = load ptr, ptr %11, align 8
  %83 = load i32, ptr %13, align 4
  %84 = call zeroext i8 @tvb_get_uint8(ptr noundef %82, i32 noundef %83)
  store i8 %84, ptr %18, align 1
  %85 = load i8, ptr %18, align 1
  %86 = zext i8 %85 to i32
  %87 = icmp sle i32 %86, 127
  br i1 %87, label %88, label %95

88:                                               ; preds = %81
  %89 = load ptr, ptr %11, align 8
  %90 = load i32, ptr %13, align 4
  %91 = add i32 %90, 1
  %92 = call zeroext i8 @tvb_get_uint8(ptr noundef %89, i32 noundef %91)
  %93 = zext i8 %92 to i32
  %94 = mul i32 %93, 4
  store i32 %94, ptr %21, align 4
  br label %96

95:                                               ; preds = %81
  store i32 4, ptr %21, align 4
  br label %96

96:                                               ; preds = %95, %88
  %97 = load ptr, ptr %25, align 8
  %98 = load i32, ptr @hf_hec_type, align 4
  %99 = load ptr, ptr %11, align 8
  %100 = load i32, ptr %13, align 4
  %101 = call ptr @proto_tree_add_item(ptr noundef %97, i32 noundef %98, ptr noundef %99, i32 noundef %100, i32 noundef 1, i32 noundef 0)
  store ptr %101, ptr %24, align 8
  %102 = load ptr, ptr %24, align 8
  %103 = load i32, ptr @ett_ext_ext, align 4
  %104 = call ptr @proto_item_add_subtree(ptr noundef %102, i32 noundef %103)
  store ptr %104, ptr %26, align 8
  %105 = load ptr, ptr %24, align 8
  %106 = load i32, ptr %21, align 4
  call void @proto_item_set_len(ptr noundef %105, i32 noundef %106)
  %107 = load i8, ptr %18, align 1
  %108 = zext i8 %107 to i32
  %109 = icmp sle i32 %108, 127
  br i1 %109, label %110, label %117

110:                                              ; preds = %96
  %111 = load ptr, ptr %26, align 8
  %112 = load i32, ptr @hf_hec_len, align 4
  %113 = load ptr, ptr %11, align 8
  %114 = load i32, ptr %13, align 4
  %115 = add i32 %114, 1
  %116 = call ptr @proto_tree_add_item(ptr noundef %111, i32 noundef %112, ptr noundef %113, i32 noundef %115, i32 noundef 1, i32 noundef 0)
  br label %117

117:                                              ; preds = %110, %96
  %118 = load i8, ptr %18, align 1
  %119 = zext i8 %118 to i32
  switch i32 %119, label %121 [
    i32 0, label %120
    i32 1, label %120
    i32 3, label %130
    i32 64, label %169
    i32 67, label %193
    i32 128, label %200
    i32 192, label %212
    i32 193, label %234
    i32 194, label %250
  ]

120:                                              ; preds = %117, %117
  br label %121

121:                                              ; preds = %117, %120
  %122 = load ptr, ptr %26, align 8
  %123 = load i32, ptr @hf_hec_data, align 4
  %124 = load ptr, ptr %11, align 8
  %125 = load i32, ptr %13, align 4
  %126 = add i32 %125, 2
  %127 = load i32, ptr %21, align 4
  %128 = sub i32 %127, 2
  %129 = call ptr @proto_tree_add_item(ptr noundef %122, i32 noundef %123, ptr noundef %124, i32 noundef %126, i32 noundef %128, i32 noundef 0)
  br label %257

130:                                              ; preds = %117
  %131 = load ptr, ptr %26, align 8
  %132 = load i32, ptr @hf_cc_sequence, align 4
  %133 = load ptr, ptr %11, align 8
  %134 = load i32, ptr %13, align 4
  %135 = add i32 %134, 2
  %136 = call ptr @proto_tree_add_item(ptr noundef %131, i32 noundef %132, ptr noundef %133, i32 noundef %135, i32 noundef 2, i32 noundef 0)
  %137 = load ptr, ptr %26, align 8
  %138 = load i32, ptr @hf_cc_flags, align 4
  %139 = load ptr, ptr %11, align 8
  %140 = load i32, ptr %13, align 4
  %141 = add i32 %140, 4
  %142 = call ptr @proto_tree_add_item(ptr noundef %137, i32 noundef %138, ptr noundef %139, i32 noundef %141, i32 noundef 1, i32 noundef 0)
  %143 = load ptr, ptr %26, align 8
  %144 = load i32, ptr @hf_cc_rtt, align 4
  %145 = load ptr, ptr %11, align 8
  %146 = load i32, ptr %13, align 4
  %147 = add i32 %146, 5
  %148 = call ptr @proto_tree_add_item(ptr noundef %143, i32 noundef %144, ptr noundef %145, i32 noundef %147, i32 noundef 1, i32 noundef 0)
  %149 = load ptr, ptr %11, align 8
  %150 = load i32, ptr %13, align 4
  %151 = add i32 %150, 6
  %152 = call zeroext i16 @tvb_get_ntohs(ptr noundef %149, i32 noundef %151)
  %153 = zext i16 %152 to i32
  %154 = sitofp i32 %153 to double
  %155 = fdiv double %154, 6.553500e+04
  store double %155, ptr %27, align 8
  %156 = load ptr, ptr %26, align 8
  %157 = load i32, ptr @hf_cc_loss, align 4
  %158 = load ptr, ptr %11, align 8
  %159 = load i32, ptr %13, align 4
  %160 = add i32 %159, 6
  %161 = load double, ptr %27, align 8
  %162 = call ptr @proto_tree_add_double(ptr noundef %156, i32 noundef %157, ptr noundef %158, i32 noundef %160, i32 noundef 2, double noundef %161)
  %163 = load ptr, ptr %26, align 8
  %164 = load i32, ptr @hf_cc_rate, align 4
  %165 = load ptr, ptr %11, align 8
  %166 = load i32, ptr %13, align 4
  %167 = add i32 %166, 8
  %168 = call ptr @proto_tree_add_item(ptr noundef %163, i32 noundef %164, ptr noundef %165, i32 noundef %167, i32 noundef 2, i32 noundef 0)
  br label %257

169:                                              ; preds = %117
  %170 = load ptr, ptr %11, align 8
  %171 = load ptr, ptr %12, align 8
  %172 = load ptr, ptr %26, align 8
  %173 = load i32, ptr %13, align 4
  %174 = load ptr, ptr %15, align 8
  %175 = icmp eq ptr %174, null
  br i1 %175, label %176, label %177

176:                                              ; preds = %169
  br label %190

177:                                              ; preds = %169
  %178 = load ptr, ptr %15, align 8
  %179 = getelementptr inbounds nuw %struct.lct_data_exchange, ptr %178, i32 0, i32 5
  %180 = load i8, ptr %179, align 1, !range !8, !noundef !9
  %181 = trunc i8 %180 to i1
  br i1 %181, label %182, label %183

182:                                              ; preds = %177
  br label %188

183:                                              ; preds = %177
  %184 = load ptr, ptr %15, align 8
  %185 = getelementptr inbounds nuw %struct.lct_data_exchange, ptr %184, i32 0, i32 3
  %186 = load i8, ptr %185, align 1
  %187 = zext i8 %186 to i32
  br label %188

188:                                              ; preds = %183, %182
  %189 = phi i32 [ 0, %182 ], [ %187, %183 ]
  br label %190

190:                                              ; preds = %188, %176
  %191 = phi i32 [ 0, %176 ], [ %189, %188 ]
  %192 = trunc i32 %191 to i8
  call void @fec_decode_ext_fti(ptr noundef %170, ptr noundef %171, ptr noundef %172, i32 noundef %173, i8 noundef zeroext %192)
  br label %257

193:                                              ; preds = %117
  %194 = load ptr, ptr %26, align 8
  %195 = load i32, ptr @hf_ext_tol_48_transfer_len, align 4
  %196 = load ptr, ptr %11, align 8
  %197 = load i32, ptr %13, align 4
  %198 = add i32 %197, 1
  %199 = call ptr @proto_tree_add_item(ptr noundef %194, i32 noundef %195, ptr noundef %196, i32 noundef %198, i32 noundef 6, i32 noundef 0)
  br label %257

200:                                              ; preds = %117
  %201 = load ptr, ptr %26, align 8
  %202 = load i32, ptr @hf_send_rate, align 4
  %203 = load ptr, ptr %11, align 8
  %204 = load i32, ptr %13, align 4
  %205 = add i32 %204, 2
  %206 = load ptr, ptr %11, align 8
  %207 = load i32, ptr %13, align 4
  %208 = add i32 %207, 2
  %209 = call zeroext i16 @tvb_get_ntohs(ptr noundef %206, i32 noundef %208)
  %210 = call double @rmt_decode_send_rate(i16 noundef zeroext %209)
  %211 = call ptr @proto_tree_add_double(ptr noundef %201, i32 noundef %202, ptr noundef %203, i32 noundef %205, i32 noundef 2, double noundef %210)
  br label %257

212:                                              ; preds = %117
  %213 = load ptr, ptr %15, align 8
  %214 = icmp ne ptr %213, null
  br i1 %214, label %215, label %233

215:                                              ; preds = %212
  %216 = load ptr, ptr %15, align 8
  %217 = getelementptr inbounds nuw %struct.lct_data_exchange, ptr %216, i32 0, i32 0
  %218 = load i32, ptr %217, align 4
  %219 = icmp eq i32 %218, 1
  br i1 %219, label %220, label %233

220:                                              ; preds = %215
  %221 = load ptr, ptr %26, align 8
  %222 = load i32, ptr @hf_flute_version, align 4
  %223 = load ptr, ptr %11, align 8
  %224 = load i32, ptr %13, align 4
  %225 = call ptr @proto_tree_add_item(ptr noundef %221, i32 noundef %222, ptr noundef %223, i32 noundef %224, i32 noundef 4, i32 noundef 0)
  %226 = load ptr, ptr %26, align 8
  %227 = load i32, ptr @hf_fdt_instance_id, align 4
  %228 = load ptr, ptr %11, align 8
  %229 = load i32, ptr %13, align 4
  %230 = call ptr @proto_tree_add_item(ptr noundef %226, i32 noundef %227, ptr noundef %228, i32 noundef %229, i32 noundef 4, i32 noundef 0)
  %231 = load ptr, ptr %15, align 8
  %232 = getelementptr inbounds nuw %struct.lct_data_exchange, ptr %231, i32 0, i32 4
  store i8 1, ptr %232, align 2
  br label %233

233:                                              ; preds = %220, %215, %212
  br label %257

234:                                              ; preds = %117
  %235 = load ptr, ptr %15, align 8
  %236 = icmp ne ptr %235, null
  br i1 %236, label %237, label %249

237:                                              ; preds = %234
  %238 = load ptr, ptr %15, align 8
  %239 = getelementptr inbounds nuw %struct.lct_data_exchange, ptr %238, i32 0, i32 1
  %240 = load i32, ptr %239, align 4
  %241 = icmp eq i32 %240, 1
  br i1 %241, label %242, label %249

242:                                              ; preds = %237
  %243 = load ptr, ptr %26, align 8
  %244 = load i32, ptr @hf_cenc, align 4
  %245 = load ptr, ptr %11, align 8
  %246 = load i32, ptr %13, align 4
  %247 = add i32 %246, 3
  %248 = call ptr @proto_tree_add_item(ptr noundef %243, i32 noundef %244, ptr noundef %245, i32 noundef %247, i32 noundef 1, i32 noundef 0)
  br label %249

249:                                              ; preds = %242, %237, %234
  br label %257

250:                                              ; preds = %117
  %251 = load ptr, ptr %26, align 8
  %252 = load i32, ptr @hf_ext_tol_24_transfer_len, align 4
  %253 = load ptr, ptr %11, align 8
  %254 = load i32, ptr %13, align 4
  %255 = add i32 %254, 1
  %256 = call ptr @proto_tree_add_item(ptr noundef %251, i32 noundef %252, ptr noundef %253, i32 noundef %255, i32 noundef 3, i32 noundef 0)
  br label %257

257:                                              ; preds = %250, %249, %233, %200, %193, %190, %130, %121
  %258 = load i32, ptr %21, align 4
  %259 = load i32, ptr %13, align 4
  %260 = add i32 %259, %258
  store i32 %260, ptr %13, align 4
  br label %261

261:                                              ; preds = %257
  %262 = load i32, ptr %19, align 4
  %263 = add i32 %262, 1
  store i32 %263, ptr %19, align 4
  br label %77, !llvm.loop !10

264:                                              ; preds = %77
  %265 = load i32, ptr %13, align 4
  %266 = load i32, ptr %23, align 4
  %267 = sub i32 %265, %266
  store i32 %267, ptr %9, align 4
  store i32 1, ptr %28, align 4
  br label %268

268:                                              ; preds = %264, %63
  call void @llvm.lifetime.end.p0(i64 8, ptr %27) #6
  call void @llvm.lifetime.end.p0(i64 8, ptr %26) #6
  call void @llvm.lifetime.end.p0(i64 8, ptr %25) #6
  call void @llvm.lifetime.end.p0(i64 8, ptr %24) #6
  call void @llvm.lifetime.end.p0(i64 4, ptr %23) #6
  call void @llvm.lifetime.end.p0(i64 4, ptr %22) #6
  call void @llvm.lifetime.end.p0(i64 4, ptr %21) #6
  call void @llvm.lifetime.end.p0(i64 4, ptr %20) #6
  call void @llvm.lifetime.end.p0(i64 4, ptr %19) #6
  call void @llvm.lifetime.end.p0(i64 1, ptr %18) #6
  %269 = load i32, ptr %9, align 4
  ret i32 %269
}