; Function Attrs: null_pointer_is_valid sspstrong uwtable
define hidden i32 @lct_ext_decode(ptr noundef %0, ptr noundef %1, ptr noundef %2, i32 noundef %3, i32 noundef %4, ptr noundef captures(address_is_null) %5, i32 noundef %6, i32 noundef %7) local_unnamed_addr #3 {
  %9 = icmp ult i32 %3, %4
  br i1 %9, label %.lr.ph, label %._crit_edge.thread

.lr.ph:                                           ; preds = %8, %.thread
  %.0102111 = phi i32 [ %18, %.thread ], [ %3, %8 ]
  %.0104110 = phi i32 [ %19, %.thread ], [ 0, %8 ]
  %10 = tail call zeroext i8 @tvb_get_uint8(ptr noundef %1, i32 noundef %.0102111)
  %11 = icmp sgt i8 %10, -1
  br i1 %11, label %12, label %.thread

12:                                               ; preds = %.lr.ph
  %13 = add nuw i32 %.0102111, 1
  %14 = tail call zeroext i8 @tvb_get_uint8(ptr noundef %1, i32 noundef %13)
  %15 = zext i8 %14 to i32
  %16 = shl nuw nsw i32 %15, 2
  %17 = icmp eq i8 %14, 0
  br i1 %17, label %._crit_edge, label %.thread

.thread:                                          ; preds = %.lr.ph, %12
  %.0103109 = phi i32 [ %16, %12 ], [ 4, %.lr.ph ]
  %18 = add i32 %.0103109, %.0102111
  %19 = add i32 %.0104110, 1
  %20 = icmp ult i32 %18, %4
  br i1 %20, label %.lr.ph, label %._crit_edge, !llvm.loop !6

._crit_edge:                                      ; preds = %.thread, %12
  %.0104.lcssa = phi i32 [ %19, %.thread ], [ %.0104110, %12 ]
  %.0102.lcssa = phi i32 [ %18, %.thread ], [ %.0102111, %12 ]
  %21 = icmp eq i32 %.0104.lcssa, 0
  br i1 %21, label %._crit_edge.thread, label %22

22:                                               ; preds = %._crit_edge
  %23 = sub i32 %.0102.lcssa, %3
  %24 = tail call ptr @proto_tree_add_uint(ptr noundef %0, i32 noundef %6, ptr noundef %1, i32 noundef %3, i32 noundef %23, i32 noundef %.0104.lcssa)
  %25 = tail call ptr @proto_item_add_subtree(ptr noundef %24, i32 noundef %7)
  %.not = icmp eq ptr %5, null
  %26 = getelementptr inbounds nuw i8, ptr %5, i64 10
  %27 = getelementptr inbounds nuw i8, ptr %5, i64 11
  %28 = getelementptr inbounds nuw i8, ptr %5, i64 9
  %29 = getelementptr inbounds nuw i8, ptr %5, i64 4
  br label %30

30:                                               ; preds = %22, %119
  %.0100117 = phi i32 [ %3, %22 ], [ %120, %119 ]
  %.0101116 = phi i32 [ 0, %22 ], [ %121, %119 ]
  %31 = tail call zeroext i8 @tvb_get_uint8(ptr noundef %1, i32 noundef %.0100117)
  %32 = icmp sgt i8 %31, -1
  br i1 %32, label %33, label %38

33:                                               ; preds = %30
  %34 = add i32 %.0100117, 1
  %35 = tail call zeroext i8 @tvb_get_uint8(ptr noundef %1, i32 noundef %34)
  %36 = zext i8 %35 to i32
  %37 = shl nuw nsw i32 %36, 2
  br label %38

38:                                               ; preds = %30, %33
  %.1 = phi i32 [ %37, %33 ], [ 4, %30 ]
  %39 = load i32, ptr @hf_hec_type, align 4
  %40 = tail call ptr @proto_tree_add_item(ptr noundef %25, i32 noundef %39, ptr noundef %1, i32 noundef %.0100117, i32 noundef 1, i32 noundef 0)
  %41 = load i32, ptr @ett_ext_ext, align 4
  %42 = tail call ptr @proto_item_add_subtree(ptr noundef %40, i32 noundef %41)
  tail call void @proto_item_set_len(ptr noundef %40, i32 noundef %.1)
  br i1 %32, label %43, label %47

43:                                               ; preds = %38
  %44 = load i32, ptr @hf_hec_len, align 4
  %45 = add i32 %.0100117, 1
  %46 = tail call ptr @proto_tree_add_item(ptr noundef %42, i32 noundef %44, ptr noundef %1, i32 noundef %45, i32 noundef 1, i32 noundef 0)
  br label %47

47:                                               ; preds = %43, %38
  switch i8 %31, label %48 [
    i8 -62, label %115
    i8 -63, label %107
    i8 3, label %53
    i8 64, label %72
    i8 67, label %80
    i8 -128, label %84
    i8 -64, label %98
  ]

48:                                               ; preds = %47
  %49 = load i32, ptr @hf_hec_data, align 4
  %50 = add i32 %.0100117, 2
  %51 = add nsw i32 %.1, -2
  %52 = tail call ptr @proto_tree_add_item(ptr noundef %42, i32 noundef %49, ptr noundef %1, i32 noundef %50, i32 noundef %51, i32 noundef 0)
  br label %119

53:                                               ; preds = %47
  %54 = load i32, ptr @hf_cc_sequence, align 4
  %55 = add i32 %.0100117, 2
  %56 = tail call ptr @proto_tree_add_item(ptr noundef %42, i32 noundef %54, ptr noundef %1, i32 noundef %55, i32 noundef 2, i32 noundef 0)
  %57 = load i32, ptr @hf_cc_flags, align 4
  %58 = add i32 %.0100117, 4
  %59 = tail call ptr @proto_tree_add_item(ptr noundef %42, i32 noundef %57, ptr noundef %1, i32 noundef %58, i32 noundef 1, i32 noundef 0)
  %60 = load i32, ptr @hf_cc_rtt, align 4
  %61 = add i32 %.0100117, 5
  %62 = tail call ptr @proto_tree_add_item(ptr noundef %42, i32 noundef %60, ptr noundef %1, i32 noundef %61, i32 noundef 1, i32 noundef 0)
  %63 = add i32 %.0100117, 6
  %64 = tail call zeroext i16 @tvb_get_ntohs(ptr noundef %1, i32 noundef %63)
  %65 = uitofp i16 %64 to double
  %66 = fdiv double %65, 6.553500e+04
  %67 = load i32, ptr @hf_cc_loss, align 4
  %68 = tail call ptr @proto_tree_add_double(ptr noundef %42, i32 noundef %67, ptr noundef %1, i32 noundef %63, i32 noundef 2, double noundef %66)
  %69 = load i32, ptr @hf_cc_rate, align 4
  %70 = add i32 %.0100117, 8
  %71 = tail call ptr @proto_tree_add_item(ptr noundef %42, i32 noundef %69, ptr noundef %1, i32 noundef %70, i32 noundef 2, i32 noundef 0)
  br label %119

72:                                               ; preds = %47
  br i1 %.not, label %78, label %73

73:                                               ; preds = %72
  %74 = load i8, ptr %27, align 1, !range !8, !noundef !9
  %75 = trunc nuw i8 %74 to i1
  br i1 %75, label %78, label %76

76:                                               ; preds = %73
  %77 = load i8, ptr %28, align 1
  br label %78

78:                                               ; preds = %76, %73, %72
  %79 = phi i8 [ 0, %72 ], [ %77, %76 ], [ 0, %73 ]
  tail call void @fec_decode_ext_fti(ptr noundef %1, ptr noundef %2, ptr noundef %42, i32 noundef %.0100117, i8 noundef zeroext %79)
  br label %119

80:                                               ; preds = %47
  %81 = load i32, ptr @hf_ext_tol_48_transfer_len, align 4
  %82 = add i32 %.0100117, 1
  %83 = tail call ptr @proto_tree_add_item(ptr noundef %42, i32 noundef %81, ptr noundef %1, i32 noundef %82, i32 noundef 6, i32 noundef 0)
  br label %119

84:                                               ; preds = %47
  %85 = load i32, ptr @hf_send_rate, align 4
  %86 = add i32 %.0100117, 2
  %87 = tail call zeroext i16 @tvb_get_ntohs(ptr noundef %1, i32 noundef %86)
  %88 = zext i16 %87 to i32
  %89 = lshr i32 %88, 4
  %90 = mul nuw nsw i32 %89, 10
  %91 = uitofp nneg i32 %90 to double
  %92 = fmul double %91, 0x3F30000000000000
  %93 = and i32 %88, 15
  %94 = uitofp nneg i32 %93 to double
  %95 = tail call double @pow(double noundef 1.000000e+01, double noundef %94) #5
  %96 = fmul double %95, %92
  %97 = tail call ptr @proto_tree_add_double(ptr noundef %42, i32 noundef %85, ptr noundef %1, i32 noundef %86, i32 noundef 2, double noundef %96)
  br label %119

98:                                               ; preds = %47
  br i1 %.not, label %119, label %99

99:                                               ; preds = %98
  %100 = load i32, ptr %5, align 4
  %101 = icmp eq i32 %100, 1
  br i1 %101, label %102, label %119

102:                                              ; preds = %99
  %103 = load i32, ptr @hf_flute_version, align 4
  %104 = tail call ptr @proto_tree_add_item(ptr noundef %42, i32 noundef %103, ptr noundef %1, i32 noundef %.0100117, i32 noundef 4, i32 noundef 0)
  %105 = load i32, ptr @hf_fdt_instance_id, align 4
  %106 = tail call ptr @proto_tree_add_item(ptr noundef %42, i32 noundef %105, ptr noundef %1, i32 noundef %.0100117, i32 noundef 4, i32 noundef 0)
  store i8 1, ptr %26, align 2
  br label %119

107:                                              ; preds = %47
  br i1 %.not, label %119, label %108

108:                                              ; preds = %107
  %109 = load i32, ptr %29, align 4
  %110 = icmp eq i32 %109, 1
  br i1 %110, label %111, label %119

111:                                              ; preds = %108
  %112 = load i32, ptr @hf_cenc, align 4
  %113 = add i32 %.0100117, 3
  %114 = tail call ptr @proto_tree_add_item(ptr noundef %42, i32 noundef %112, ptr noundef %1, i32 noundef %113, i32 noundef 1, i32 noundef 0)
  br label %119

115:                                              ; preds = %47
  %116 = load i32, ptr @hf_ext_tol_24_transfer_len, align 4
  %117 = add i32 %.0100117, 1
  %118 = tail call ptr @proto_tree_add_item(ptr noundef %42, i32 noundef %116, ptr noundef %1, i32 noundef %117, i32 noundef 3, i32 noundef 0)
  br label %119

119:                                              ; preds = %107, %108, %111, %98, %99, %102, %115, %84, %80, %78, %53, %48
  %120 = add i32 %.1, %.0100117
  %121 = add nuw i32 %.0101116, 1
  %exitcond.not = icmp eq i32 %121, %.0104.lcssa
  br i1 %exitcond.not, label %122, label %30, !llvm.loop !10

122:                                              ; preds = %119
  %123 = sub i32 %120, %3
  br label %._crit_edge.thread

._crit_edge.thread:                               ; preds = %8, %._crit_edge, %122
  %.0 = phi i32 [ %123, %122 ], [ 0, %._crit_edge ], [ 0, %8 ]
  ret i32 %.0
}